; Function Attrs: nounwind sspstrong uwtable
define internal fastcc i64 @negate_num(i64 noundef %0) unnamed_addr #0 {
  %2 = and i64 %0, 1
  %.not = icmp eq i64 %2, 0
  br i1 %.not, label %5, label %3

3:                                                ; preds = %1
  %4 = tail call i64 @rb_int_uminus(i64 noundef %0) #17
  br label %10

5:                                                ; preds = %1
  %6 = inttoptr i64 %0 to ptr
  %7 = load i64, ptr %6, align 8, !tbaa !7
  %8 = xor i64 %7, 8192
  store i64 %8, ptr %6, align 8, !tbaa !7
  %9 = tail call i64 @rb_big_norm(i64 noundef %0) #17
  br label %10

10:                                               ; preds = %5, %3
  %.0 = phi i64 [ %4, %3 ], [ %9, %5 ]
  ret i64 %.0
}